target datalayout = "e-m:e-p270:32:32-p271:32:32-p272:64:64-i64:64-i128:128-f80:128-n8:16:32:64-S128"
target triple = "x86_64-pc-linux-gnu"

%struct.pmix_object_t = type { %union.pthread_mutex_t, ptr, i32, %struct.pmix_tma }
%union.pthread_mutex_t = type { %struct.__pthread_mutex_s }
%struct.__pthread_mutex_s = type { i32, i32, i32, i32, i32, i16, i16, %struct.__pthread_internal_list }
%struct.__pthread_internal_list = type { ptr, ptr }
%struct.pmix_tma = type { ptr, ptr, ptr, ptr, ptr, ptr, ptr, ptr }
%struct.pmix_list_item_t = type { %struct.pmix_object_t, ptr, ptr, i32 }
%struct.pmix_list_t = type { %struct.pmix_object_t, %struct.pmix_list_item_t, i64 }
%struct.pmix_cli_item_t = type { %struct.pmix_list_item_t, ptr, ptr }
%struct.pmix_cli_result_t = type { %struct.pmix_object_t, %struct.pmix_list_t, ptr }
%struct.pmix_mca_base_var_t = type { %struct.pmix_object_t, i32, i32, i32, ptr, ptr, ptr, ptr, %struct.pmix_value_array_t, i32, i32, i32, ptr, ptr, ptr, i32, ptr, ptr }
%struct.pmix_value_array_t = type { %struct.pmix_object_t, ptr, i64, i64, i64 }
%struct.pmix_mca_base_var_group_t = type { %struct.pmix_list_item_t, i32, i8, ptr, ptr, ptr, ptr, ptr, %struct.pmix_value_array_t, %struct.pmix_value_array_t }

@pmix_info_pretty = dso_local global i8 1, align 1
@.str.26 = private unnamed_addr constant [5 x i8] c"type\00", align 1
@pmix_info_cmd_line = external global ptr, align 8
@pmix_var_type_names = external global [0 x ptr], align 8
@.str.54 = private unnamed_addr constant [7 x i8] c"MCA %s\00", align 1
@.str.55 = private unnamed_addr constant [1 x i8] zeroinitializer, align 1

; Function Attrs: inlinehint nounwind uwtable
define internal ptr @pmix_cmd_line_get_param(ptr noundef %0, ptr noundef %1) #4 {
  %3 = alloca ptr, align 8
  %4 = alloca ptr, align 8
  %5 = alloca ptr, align 8
  %6 = alloca ptr, align 8
  %7 = alloca i32, align 4
  store ptr %0, ptr %4, align 8, !tbaa !4
  store ptr %1, ptr %5, align 8, !tbaa !24
  call void @llvm.lifetime.start.p0(i64 8, ptr %6) #13
  %8 = load ptr, ptr %4, align 8, !tbaa !4
  %9 = getelementptr inbounds nuw %struct.pmix_cli_result_t, ptr %8, i32 0, i32 1
  %10 = getelementptr inbounds nuw %struct.pmix_list_t, ptr %9, i32 0, i32 1
  %11 = getelementptr inbounds nuw %struct.pmix_list_item_t, ptr %10, i32 0, i32 1
  %12 = load ptr, ptr %11, align 8, !tbaa !85
  store ptr %12, ptr %6, align 8, !tbaa !4
  br label %13

13:                                               ; preds = %29, %2
  %14 = load ptr, ptr %6, align 8, !tbaa !4
  %15 = load ptr, ptr %4, align 8, !tbaa !4
  %16 = getelementptr inbounds nuw %struct.pmix_cli_result_t, ptr %15, i32 0, i32 1
  %17 = getelementptr inbounds nuw %struct.pmix_list_t, ptr %16, i32 0, i32 1
  %18 = icmp ne ptr %14, %17
  br i1 %18, label %19, label %33

19:                                               ; preds = %13
  %20 = load ptr, ptr %6, align 8, !tbaa !4
  %21 = getelementptr inbounds nuw %struct.pmix_cli_item_t, ptr %20, i32 0, i32 1
  %22 = load ptr, ptr %21, align 8, !tbaa !87
  %23 = load ptr, ptr %5, align 8, !tbaa !24
  %24 = call i32 @strcmp(ptr noundef %22, ptr noundef %23) #16
  %25 = icmp eq i32 0, %24
  br i1 %25, label %26, label %28

26:                                               ; preds = %19
  %27 = load ptr, ptr %6, align 8, !tbaa !4
  store ptr %27, ptr %3, align 8
  store i32 1, ptr %7, align 4
  br label %34

28:                                               ; preds = %19
  br label %29

29:                                               ; preds = %28
  %30 = load ptr, ptr %6, align 8, !tbaa !4
  %31 = getelementptr inbounds nuw %struct.pmix_list_item_t, ptr %30, i32 0, i32 1
  %32 = load ptr, ptr %31, align 8, !tbaa !88
  store ptr %32, ptr %6, align 8, !tbaa !4
  br label %13, !llvm.loop !89

33:                                               ; preds = %13
  store ptr null, ptr %3, align 8
  store i32 1, ptr %7, align 4
  br label %34

34:                                               ; preds = %33, %26
  call void @llvm.lifetime.end.p0(i64 8, ptr %6) #13
  %35 = load ptr, ptr %3, align 8
  ret ptr %35
}

; Function Attrs: nounwind uwtable
define dso_local void @pmix_info_do_type() #0 {
  %1 = alloca i32, align 4
  %2 = alloca ptr, align 8
  %3 = alloca i32, align 4
  %4 = alloca i32, align 4
  %5 = alloca i32, align 4
  %6 = alloca i32, align 4
  %7 = alloca i32, align 4
  %8 = alloca ptr, align 8
  %9 = alloca ptr, align 8
  %10 = alloca ptr, align 8
  %11 = alloca ptr, align 8
  %12 = alloca ptr, align 8
  %13 = alloca i32, align 4
  call void @llvm.lifetime.start.p0(i64 4, ptr %1) #13
  call void @llvm.lifetime.start.p0(i64 8, ptr %2) #13
  call void @llvm.lifetime.start.p0(i64 4, ptr %3) #13
  call void @llvm.lifetime.start.p0(i64 4, ptr %4) #13
  call void @llvm.lifetime.start.p0(i64 4, ptr %5) #13
  call void @llvm.lifetime.start.p0(i64 4, ptr %6) #13
  call void @llvm.lifetime.start.p0(i64 4, ptr %7) #13
  call void @llvm.lifetime.start.p0(i64 8, ptr %8) #13
  call void @llvm.lifetime.start.p0(i64 8, ptr %9) #13
  call void @llvm.lifetime.start.p0(i64 8, ptr %10) #13
  call void @llvm.lifetime.start.p0(i64 8, ptr %11) #13
  call void @llvm.lifetime.start.p0(i64 8, ptr %12) #13
  %14 = load ptr, ptr @pmix_info_cmd_line, align 8, !tbaa !4
  %15 = call ptr @pmix_cmd_line_get_param(ptr noundef %14, ptr noundef @.str.26)
  store ptr %15, ptr %12, align 8, !tbaa !4
  %16 = load ptr, ptr %12, align 8, !tbaa !4
  %17 = icmp eq ptr null, %16
  br i1 %17, label %18, label %19

18:                                               ; preds = %0
  store i32 1, ptr %13, align 4
  br label %129

19:                                               ; preds = %0
  %20 = load ptr, ptr %12, align 8, !tbaa !4
  %21 = getelementptr inbounds nuw %struct.pmix_cli_item_t, ptr %20, i32 0, i32 2
  %22 = load ptr, ptr %21, align 8, !tbaa !63
  %23 = call i32 @PMIx_Argv_count(ptr noundef %22)
  store i32 %23, ptr %1, align 4, !tbaa !18
  %24 = call i32 @pmix_mca_base_var_get_count()
  store i32 %24, ptr %6, align 4, !tbaa !18
  store i32 0, ptr %5, align 4, !tbaa !18
  br label %25

25:                                               ; preds = %125, %19
  %26 = load i32, ptr %5, align 4, !tbaa !18
  %27 = load i32, ptr %1, align 4, !tbaa !18
  %28 = icmp slt i32 %26, %27
  br i1 %28, label %29, label %128

29:                                               ; preds = %25
  %30 = load ptr, ptr %12, align 8, !tbaa !4
  %31 = getelementptr inbounds nuw %struct.pmix_cli_item_t, ptr %30, i32 0, i32 2
  %32 = load ptr, ptr %31, align 8, !tbaa !63
  %33 = load i32, ptr %5, align 4, !tbaa !18
  %34 = sext i32 %33 to i64
  %35 = getelementptr inbounds ptr, ptr %32, i64 %34
  %36 = load ptr, ptr %35, align 8, !tbaa !24
  store ptr %36, ptr %2, align 8, !tbaa !24
  store i32 0, ptr %3, align 4, !tbaa !18
  br label %37

37:                                               ; preds = %121, %29
  %38 = load i32, ptr %3, align 4, !tbaa !18
  %39 = load i32, ptr %6, align 4, !tbaa !18
  %40 = icmp slt i32 %38, %39
  br i1 %40, label %41, label %124

41:                                               ; preds = %37
  %42 = load i32, ptr %3, align 4, !tbaa !18
  %43 = call i32 @pmix_mca_base_var_get(i32 noundef %42, ptr noundef %8)
  store i32 %43, ptr %7, align 4, !tbaa !18
  %44 = load i32, ptr %7, align 4, !tbaa !18
  %45 = icmp ne i32 0, %44
  br i1 %45, label %46, label %47

46:                                               ; preds = %41
  br label %121

47:                                               ; preds = %41
  %48 = load ptr, ptr %2, align 8, !tbaa !24
  %49 = load ptr, ptr %8, align 8, !tbaa !102
  %50 = getelementptr inbounds nuw %struct.pmix_mca_base_var_t, ptr %49, i32 0, i32 3
  %51 = load i32, ptr %50, align 8, !tbaa !104
  %52 = zext i32 %51 to i64
  %53 = getelementptr inbounds nuw [0 x ptr], ptr @pmix_var_type_names, i64 0, i64 %52
  %54 = load ptr, ptr %53, align 8, !tbaa !24
  %55 = call i32 @strcmp(ptr noundef %48, ptr noundef %54) #16
  %56 = icmp eq i32 0, %55
  br i1 %56, label %57, label %120

57:                                               ; preds = %47
  %58 = load ptr, ptr %8, align 8, !tbaa !102
  %59 = getelementptr inbounds nuw %struct.pmix_mca_base_var_t, ptr %58, i32 0, i32 1
  %60 = load i32, ptr %59, align 8, !tbaa !108
  %61 = load i8, ptr @pmix_info_pretty, align 1, !tbaa !27, !range !61, !noundef !62
  %62 = trunc i8 %61 to i1
  %63 = xor i1 %62, true
  %64 = select i1 %63, i32 1, i32 0
  %65 = call i32 @pmix_mca_base_var_dump(i32 noundef %60, ptr noundef %9, i32 noundef %64)
  store i32 %65, ptr %7, align 4, !tbaa !18
  %66 = load i32, ptr %7, align 4, !tbaa !18
  %67 = icmp ne i32 0, %66
  br i1 %67, label %68, label %69

68:                                               ; preds = %57
  br label %121

69:                                               ; preds = %57
  %70 = load ptr, ptr %8, align 8, !tbaa !102
  %71 = getelementptr inbounds nuw %struct.pmix_mca_base_var_t, ptr %70, i32 0, i32 2
  %72 = load i32, ptr %71, align 4, !tbaa !109
  %73 = call i32 @pmix_mca_base_var_group_get(i32 noundef %72, ptr noundef %11)
  store i32 0, ptr %4, align 4, !tbaa !18
  br label %74

74:                                               ; preds = %115, %69
  %75 = load ptr, ptr %9, align 8, !tbaa !19
  %76 = load i32, ptr %4, align 4, !tbaa !18
  %77 = sext i32 %76 to i64
  %78 = getelementptr inbounds ptr, ptr %75, i64 %77
  %79 = load ptr, ptr %78, align 8, !tbaa !24
  %80 = icmp ne ptr %79, null
  br i1 %80, label %81, label %118

81:                                               ; preds = %74
  %82 = load i32, ptr %4, align 4, !tbaa !18
  %83 = icmp eq i32 0, %82
  br i1 %83, label %84, label %103

84:                                               ; preds = %81
  %85 = load i8, ptr @pmix_info_pretty, align 1, !tbaa !27, !range !61, !noundef !62
  %86 = trunc i8 %85 to i1
  br i1 %86, label %87, label %103

87:                                               ; preds = %84
  %88 = load ptr, ptr %11, align 8, !tbaa !99
  %89 = getelementptr inbounds nuw %struct.pmix_mca_base_var_group_t, ptr %88, i32 0, i32 5
  %90 = load ptr, ptr %89, align 8, !tbaa !110
  %91 = call i32 (ptr, ptr, ...) @asprintf(ptr noundef %10, ptr noundef @.str.54, ptr noundef %90) #13
  %92 = icmp sgt i32 0, %91
  br i1 %92, label %93, label %94

93:                                               ; preds = %87
  br label %115

94:                                               ; preds = %87
  %95 = load ptr, ptr %10, align 8, !tbaa !24
  %96 = load ptr, ptr %10, align 8, !tbaa !24
  %97 = load ptr, ptr %9, align 8, !tbaa !19
  %98 = load i32, ptr %4, align 4, !tbaa !18
  %99 = sext i32 %98 to i64
  %100 = getelementptr inbounds ptr, ptr %97, i64 %99
  %101 = load ptr, ptr %100, align 8, !tbaa !24
  call void @pmix_info_out(ptr noundef %95, ptr noundef %96, ptr noundef %101)
  %102 = load ptr, ptr %10, align 8, !tbaa !24
  call void @free(ptr noundef %102) #13
  br label %109

103:                                              ; preds = %84, %81
  %104 = load ptr, ptr %9, align 8, !tbaa !19
  %105 = load i32, ptr %4, align 4, !tbaa !18
  %106 = sext i32 %105 to i64
  %107 = getelementptr inbounds ptr, ptr %104, i64 %106
  %108 = load ptr, ptr %107, align 8, !tbaa !24
  call void @pmix_info_out(ptr noundef @.str.55, ptr noundef @.str.55, ptr noundef %108)
  br label %109

109:                                              ; preds = %103, %94
  %110 = load ptr, ptr %9, align 8, !tbaa !19
  %111 = load i32, ptr %4, align 4, !tbaa !18
  %112 = sext i32 %111 to i64
  %113 = getelementptr inbounds ptr, ptr %110, i64 %112
  %114 = load ptr, ptr %113, align 8, !tbaa !24
  call void @free(ptr noundef %114) #13
  br label %115

115:                                              ; preds = %109, %93
  %116 = load i32, ptr %4, align 4, !tbaa !18
  %117 = add nsw i32 %116, 1
  store i32 %117, ptr %4, align 4, !tbaa !18
  br label %74, !llvm.loop !112

118:                                              ; preds = %74
  %119 = load ptr, ptr %9, align 8, !tbaa !19
  call void @free(ptr noundef %119) #13
  br label %120

120:                                              ; preds = %118, %47
  br label %121

121:                                              ; preds = %120, %68, %46
  %122 = load i32, ptr %3, align 4, !tbaa !18
  %123 = add nsw i32 %122, 1
  store i32 %123, ptr %3, align 4, !tbaa !18
  br label %37, !llvm.loop !113

124:                                              ; preds = %37
  br label %125

125:                                              ; preds = %124
  %126 = load i32, ptr %5, align 4, !tbaa !18
  %127 = add nsw i32 %126, 1
  store i32 %127, ptr %5, align 4, !tbaa !18
  br label %25, !llvm.loop !114

128:                                              ; preds = %25
  store i32 0, ptr %13, align 4
  br label %129

129:                                              ; preds = %128, %18
  call void @llvm.lifetime.end.p0(i64 8, ptr %12) #13
  call void @llvm.lifetime.end.p0(i64 8, ptr %11) #13
  call void @llvm.lifetime.end.p0(i64 8, ptr %10) #13
  call void @llvm.lifetime.end.p0(i64 8, ptr %9) #13
  call void @llvm.lifetime.end.p0(i64 8, ptr %8) #13
  call void @llvm.lifetime.end.p0(i64 4, ptr %7) #13
  call void @llvm.lifetime.end.p0(i64 4, ptr %6) #13
  call void @llvm.lifetime.end.p0(i64 4, ptr %5) #13
  call void @llvm.lifetime.end.p0(i64 4, ptr %4) #13
  call void @llvm.lifetime.end.p0(i64 4, ptr %3) #13
  call void @llvm.lifetime.end.p0(i64 8, ptr %2) #13
  call void @llvm.lifetime.end.p0(i64 4, ptr %1) #13
  %130 = load i32, ptr %13, align 4
  switch i32 %130, label %132 [
    i32 0, label %131
    i32 1, label %131
  ]

131:                                              ; preds = %129, %129
  ret void

132:                                              ; preds = %129
  unreachable
}