; Function Attrs: nounwind uwtable
define dso_local void @pmix_info_do_type() local_unnamed_addr #2 {
  %1 = alloca ptr, align 8
  %2 = alloca ptr, align 8
  %3 = alloca ptr, align 8
  %4 = alloca ptr, align 8
  call void @llvm.lifetime.start.p0(i64 8, ptr nonnull %1) #17
  call void @llvm.lifetime.start.p0(i64 8, ptr nonnull %2) #17
  call void @llvm.lifetime.start.p0(i64 8, ptr nonnull %3) #17
  call void @llvm.lifetime.start.p0(i64 8, ptr nonnull %4) #17
  %5 = load ptr, ptr @pmix_info_cmd_line, align 8, !tbaa !17
  %6 = getelementptr inbounds nuw i8, ptr %5, i64 240
  %7 = getelementptr inbounds nuw i8, ptr %5, i64 360
  %.09.i = load ptr, ptr %7, align 8, !tbaa !30
  %.not10.i = icmp eq ptr %.09.i, %6
  br i1 %.not10.i, label %pmix_cmd_line_get_param.exit.thread, label %.lr.ph.i

.lr.ph.i:                                         ; preds = %0, %12
  %.011.i = phi ptr [ %.0.i, %12 ], [ %.09.i, %0 ]
  %8 = getelementptr inbounds nuw i8, ptr %.011.i, i64 144
  %9 = load ptr, ptr %8, align 8, !tbaa !31
  %10 = tail call i32 @strcmp(ptr noundef nonnull dereferenceable(1) %9, ptr noundef nonnull dereferenceable(5) @.str.26) #23
  %11 = icmp eq i32 %10, 0
  br i1 %11, label %pmix_cmd_line_get_param.exit, label %12

12:                                               ; preds = %.lr.ph.i
  %13 = getelementptr inbounds nuw i8, ptr %.011.i, i64 120
  %.0.i = load ptr, ptr %13, align 8, !tbaa !30
  %.not.i = icmp eq ptr %.0.i, %6
  br i1 %.not.i, label %pmix_cmd_line_get_param.exit.thread, label %.lr.ph.i, !llvm.loop !34

pmix_cmd_line_get_param.exit:                     ; preds = %.lr.ph.i
  %14 = getelementptr inbounds nuw i8, ptr %.011.i, i64 152
  %15 = load ptr, ptr %14, align 8, !tbaa !63
  %16 = tail call i32 @PMIx_Argv_count(ptr noundef %15) #17
  %17 = tail call i32 @pmix_mca_base_var_get_count() #17
  %18 = icmp sgt i32 %16, 0
  %19 = icmp sgt i32 %17, 0
  %or.cond = select i1 %18, i1 %19, i1 false
  br i1 %or.cond, label %.lr.ph31.us.preheader, label %pmix_cmd_line_get_param.exit.thread

.lr.ph31.us.preheader:                            ; preds = %pmix_cmd_line_get_param.exit
  %wide.trip.count = zext nneg i32 %16 to i64
  br label %.lr.ph31.us

.lr.ph31.us:                                      ; preds = %.lr.ph31.us.preheader, %._crit_edge32.us
  %indvars.iv39 = phi i64 [ 0, %.lr.ph31.us.preheader ], [ %indvars.iv.next40, %._crit_edge32.us ]
  %20 = load ptr, ptr %14, align 8, !tbaa !63
  %21 = getelementptr inbounds nuw ptr, ptr %20, i64 %indvars.iv39
  %22 = load ptr, ptr %21, align 8, !tbaa !29
  br label %23

23:                                               ; preds = %.lr.ph31.us, %73
  %.029.us = phi i32 [ 0, %.lr.ph31.us ], [ %74, %73 ]
  %24 = call i32 @pmix_mca_base_var_get(i32 noundef %.029.us, ptr noundef nonnull %1) #17
  %.not.us = icmp eq i32 %24, 0
  br i1 %.not.us, label %25, label %73

25:                                               ; preds = %23
  %26 = load ptr, ptr %1, align 8, !tbaa !93
  %27 = getelementptr inbounds nuw i8, ptr %26, i64 128
  %28 = load i32, ptr %27, align 8, !tbaa !95
  %29 = zext i32 %28 to i64
  %30 = getelementptr inbounds nuw [0 x ptr], ptr @pmix_var_type_names, i64 0, i64 %29
  %31 = load ptr, ptr %30, align 8, !tbaa !29
  %32 = call i32 @strcmp(ptr noundef nonnull dereferenceable(1) %22, ptr noundef nonnull dereferenceable(1) %31) #23
  %33 = icmp eq i32 %32, 0
  br i1 %33, label %34, label %73

34:                                               ; preds = %25
  %35 = getelementptr inbounds nuw i8, ptr %26, i64 120
  %36 = load i32, ptr %35, align 8, !tbaa !99
  %37 = load i8, ptr @pmix_info_pretty, align 1, !tbaa !35, !range !60, !noundef !61
  %38 = xor i8 %37, 1
  %39 = zext nneg i8 %38 to i32
  %40 = call i32 @pmix_mca_base_var_dump(i32 noundef %36, ptr noundef nonnull %2, i32 noundef %39) #17
  %.not22.us = icmp eq i32 %40, 0
  br i1 %.not22.us, label %41, label %73

41:                                               ; preds = %34
  %42 = load ptr, ptr %1, align 8, !tbaa !93
  %43 = getelementptr inbounds nuw i8, ptr %42, i64 124
  %44 = load i32, ptr %43, align 4, !tbaa !100
  %45 = call i32 @pmix_mca_base_var_group_get(i32 noundef %44, ptr noundef nonnull %4) #17
  %46 = load ptr, ptr %2, align 8, !tbaa !101
  %47 = load ptr, ptr %46, align 8, !tbaa !29
  %.not2327.us = icmp eq ptr %47, null
  br i1 %.not2327.us, label %._crit_edge.us, label %.lr.ph.us

.lr.ph.us:                                        ; preds = %41, %69
  %indvars.iv = phi i64 [ %indvars.iv.next, %69 ], [ 0, %41 ]
  %48 = phi ptr [ %72, %69 ], [ %47, %41 ]
  %49 = icmp eq i64 %indvars.iv, 0
  br i1 %49, label %50, label %53

50:                                               ; preds = %.lr.ph.us
  %51 = load i8, ptr @pmix_info_pretty, align 1, !tbaa !35, !range !60, !noundef !61
  %52 = trunc nuw i8 %51 to i1
  br i1 %52, label %54, label %53

53:                                               ; preds = %50, %.lr.ph.us
  call void @pmix_info_out(ptr noundef nonnull @.str.55, ptr noundef nonnull @.str.55, ptr noundef nonnull %48)
  br label %65

54:                                               ; preds = %50
  %55 = load ptr, ptr %4, align 8, !tbaa !87
  %56 = getelementptr inbounds nuw i8, ptr %55, i64 168
  %57 = load ptr, ptr %56, align 8, !tbaa !102
  %58 = call i32 (ptr, ptr, ...) @asprintf(ptr noundef nonnull %3, ptr noundef nonnull @.str.54, ptr noundef %57) #17
  %59 = icmp slt i32 %58, 0
  br i1 %59, label %69, label %60

60:                                               ; preds = %54
  %61 = load ptr, ptr %3, align 8, !tbaa !29
  %62 = load ptr, ptr %2, align 8, !tbaa !101
  %63 = load ptr, ptr %62, align 8, !tbaa !29
  call void @pmix_info_out(ptr noundef %61, ptr noundef %61, ptr noundef %63)
  %64 = load ptr, ptr %3, align 8, !tbaa !29
  call void @free(ptr noundef %64) #17
  br label %65

65:                                               ; preds = %60, %53
  %66 = load ptr, ptr %2, align 8, !tbaa !101
  %67 = getelementptr inbounds nuw ptr, ptr %66, i64 %indvars.iv
  %68 = load ptr, ptr %67, align 8, !tbaa !29
  call void @free(ptr noundef %68) #17
  br label %69

69:                                               ; preds = %65, %54
  %indvars.iv.next = add nuw nsw i64 %indvars.iv, 1
  %70 = load ptr, ptr %2, align 8, !tbaa !101
  %71 = getelementptr inbounds nuw ptr, ptr %70, i64 %indvars.iv.next
  %72 = load ptr, ptr %71, align 8, !tbaa !29
  %.not23.us = icmp eq ptr %72, null
  br i1 %.not23.us, label %._crit_edge.us, label %.lr.ph.us, !llvm.loop !104

._crit_edge.us:                                   ; preds = %69, %41
  %.lcssa.us = phi ptr [ %46, %41 ], [ %70, %69 ]
  call void @free(ptr noundef nonnull %.lcssa.us) #17
  br label %73

73:                                               ; preds = %._crit_edge.us, %34, %25, %23
  %74 = add nuw nsw i32 %.029.us, 1
  %exitcond.not = icmp eq i32 %74, %17
  br i1 %exitcond.not, label %._crit_edge32.us, label %23, !llvm.loop !105

._crit_edge32.us:                                 ; preds = %73
  %indvars.iv.next40 = add nuw nsw i64 %indvars.iv39, 1
  %exitcond42.not = icmp eq i64 %indvars.iv.next40, %wide.trip.count
  br i1 %exitcond42.not, label %pmix_cmd_line_get_param.exit.thread, label %.lr.ph31.us, !llvm.loop !106

pmix_cmd_line_get_param.exit.thread:              ; preds = %12, %._crit_edge32.us, %pmix_cmd_line_get_param.exit, %0
  call void @llvm.lifetime.end.p0(i64 8, ptr nonnull %4) #17
  call void @llvm.lifetime.end.p0(i64 8, ptr nonnull %3) #17
  call void @llvm.lifetime.end.p0(i64 8, ptr nonnull %2) #17
  call void @llvm.lifetime.end.p0(i64 8, ptr nonnull %1) #17
  ret void
}